; Function Attrs: null_pointer_is_valid sspstrong uwtable
define internal i32 @dissect_p1_TraceInformationElement(i1 noundef zeroext %0, ptr noundef %1, i32 noundef %2, ptr noundef %3, ptr noundef %4, i32 noundef %5) #0 {
  %7 = getelementptr inbounds nuw i8, ptr %3, i64 136
  %8 = load ptr, ptr %7, align 8
  %9 = icmp eq ptr %8, null
  br i1 %9, label %10, label %set_do_address.exit

10:                                               ; preds = %6
  %11 = getelementptr inbounds nuw i8, ptr %3, i64 16
  %12 = load ptr, ptr %11, align 8
  %13 = getelementptr inbounds nuw i8, ptr %12, i64 408
  %14 = load ptr, ptr %13, align 8
  %15 = tail call noalias dereferenceable_or_null(32) ptr @wmem_alloc0(ptr noundef %14, i64 noundef 32) #6
  store ptr %15, ptr %7, align 8
  br label %set_do_address.exit

set_do_address.exit:                              ; preds = %6, %10
  %16 = phi ptr [ %15, %10 ], [ %8, %6 ]
  store i8 1, ptr %16, align 8
  %17 = load i32, ptr @ett_p1_TraceInformationElement, align 4
  %18 = tail call i32 @dissect_ber_sequence(i1 noundef zeroext %0, ptr noundef %3, ptr noundef %4, ptr noundef %1, i32 noundef %2, ptr noundef nonnull @TraceInformationElement_sequence, i32 noundef %5, i32 noundef %17)
  %19 = load ptr, ptr %7, align 8
  %20 = icmp eq ptr %19, null
  br i1 %20, label %21, label %set_do_address.exit8

21:                                               ; preds = %set_do_address.exit
  %22 = getelementptr inbounds nuw i8, ptr %3, i64 16
  %23 = load ptr, ptr %22, align 8
  %24 = getelementptr inbounds nuw i8, ptr %23, i64 408
  %25 = load ptr, ptr %24, align 8
  %26 = tail call noalias dereferenceable_or_null(32) ptr @wmem_alloc0(ptr noundef %25, i64 noundef 32) #6
  store ptr %26, ptr %7, align 8
  br label %set_do_address.exit8

set_do_address.exit8:                             ; preds = %set_do_address.exit, %21
  %27 = phi ptr [ %26, %21 ], [ %19, %set_do_address.exit ]
  store i8 0, ptr %27, align 8
  ret i32 %18
}